target datalayout = "e-m:e-p270:32:32-p271:32:32-p272:64:64-i64:64-i128:128-f80:128-n8:16:32:64-S128"
target triple = "x86_64-pc-linux-gnu"

; Function Attrs: nounwind uwtable
define void @pmix_string_copy(ptr noundef nonnull %0, ptr noundef nonnull %1, i64 noundef %2) #0 {
  %4 = alloca ptr, align 8
  %5 = alloca ptr, align 8
  %6 = alloca i64, align 8
  %7 = alloca i64, align 8
  %8 = alloca ptr, align 8
  %9 = alloca i32, align 4
  store ptr %0, ptr %4, align 8, !tbaa !3
  store ptr %1, ptr %5, align 8, !tbaa !3
  store i64 %2, ptr %6, align 8, !tbaa !8
  call void @llvm.lifetime.start.p0(i64 8, ptr %7) #5
  call void @llvm.lifetime.start.p0(i64 8, ptr %8) #5
  %10 = load ptr, ptr %4, align 8, !tbaa !3
  store ptr %10, ptr %8, align 8, !tbaa !3
  store i64 0, ptr %7, align 8, !tbaa !8
  br label %11

11:                                               ; preds = %25, %3
  %12 = load i64, ptr %7, align 8, !tbaa !8
  %13 = load i64, ptr %6, align 8, !tbaa !8
  %14 = icmp ult i64 %12, %13
  br i1 %14, label %15, label %32

15:                                               ; preds = %11
  %16 = load ptr, ptr %5, align 8, !tbaa !3
  %17 = load i8, ptr %16, align 1, !tbaa !10
  %18 = load ptr, ptr %8, align 8, !tbaa !3
  store i8 %17, ptr %18, align 1, !tbaa !10
  %19 = load ptr, ptr %5, align 8, !tbaa !3
  %20 = load i8, ptr %19, align 1, !tbaa !10
  %21 = sext i8 %20 to i32
  %22 = icmp eq i32 0, %21
  br i1 %22, label %23, label %24

23:                                               ; preds = %15
  store i32 1, ptr %9, align 4
  br label %37

24:                                               ; preds = %15
  br label %25

25:                                               ; preds = %24
  %26 = load i64, ptr %7, align 8, !tbaa !8
  %27 = add i64 %26, 1
  store i64 %27, ptr %7, align 8, !tbaa !8
  %28 = load ptr, ptr %5, align 8, !tbaa !3
  %29 = getelementptr inbounds nuw i8, ptr %28, i32 1
  store ptr %29, ptr %5, align 8, !tbaa !3
  %30 = load ptr, ptr %8, align 8, !tbaa !3
  %31 = getelementptr inbounds nuw i8, ptr %30, i32 1
  store ptr %31, ptr %8, align 8, !tbaa !3
  br label %11, !llvm.loop !11

32:                                               ; preds = %11
  %33 = load ptr, ptr %4, align 8, !tbaa !3
  %34 = load i64, ptr %7, align 8, !tbaa !8
  %35 = sub i64 %34, 1
  %36 = getelementptr inbounds nuw i8, ptr %33, i64 %35
  store i8 0, ptr %36, align 1, !tbaa !10
  store i32 0, ptr %9, align 4
  br label %37

37:                                               ; preds = %32, %23
  call void @llvm.lifetime.end.p0(i64 8, ptr %8) #5
  call void @llvm.lifetime.end.p0(i64 8, ptr %7) #5
  %38 = load i32, ptr %9, align 4
  switch i32 %38, label %40 [
    i32 0, label %39
    i32 1, label %39
  ]

39:                                               ; preds = %37, %37
  ret void

40:                                               ; preds = %37
  unreachable
}

; Function Attrs: nocallback nofree nosync nounwind willreturn memory(argmem: readwrite)
declare void @llvm.lifetime.start.p0(i64 immarg, ptr captures(none)) #1

; Function Attrs: nocallback nofree nosync nounwind willreturn memory(argmem: readwrite)
declare void @llvm.lifetime.end.p0(i64 immarg, ptr captures(none)) #1

; Function Attrs: nounwind uwtable
define ptr @pmix_getline(ptr noundef %0) #0 {
  %2 = alloca ptr, align 8
  %3 = alloca ptr, align 8
  %4 = alloca ptr, align 8
  %5 = alloca ptr, align 8
  %6 = alloca [1024 x i8], align 16
  %7 = alloca i32, align 4
  store ptr %0, ptr %3, align 8, !tbaa !13
  call void @llvm.lifetime.start.p0(i64 8, ptr %4) #5
  call void @llvm.lifetime.start.p0(i64 8, ptr %5) #5
  call void @llvm.lifetime.start.p0(i64 1024, ptr %6) #5
  %8 = getelementptr inbounds [1024 x i8], ptr %6, i64 0, i64 0
  %9 = load ptr, ptr %3, align 8, !tbaa !13
  %10 = call ptr @fgets(ptr noundef %8, i32 noundef 1024, ptr noundef %9)
  store ptr %10, ptr %4, align 8, !tbaa !3
  %11 = load ptr, ptr %4, align 8, !tbaa !3
  %12 = icmp ne ptr null, %11
  br i1 %12, label %13, label %21

13:                                               ; preds = %1
  %14 = getelementptr inbounds [1024 x i8], ptr %6, i64 0, i64 0
  %15 = call i64 @strlen(ptr noundef %14) #6
  %16 = sub i64 %15, 1
  %17 = getelementptr inbounds nuw [1024 x i8], ptr %6, i64 0, i64 %16
  store i8 0, ptr %17, align 1, !tbaa !10
  %18 = getelementptr inbounds [1024 x i8], ptr %6, i64 0, i64 0
  %19 = call noalias ptr @strdup(ptr noundef %18) #5
  store ptr %19, ptr %5, align 8, !tbaa !3
  %20 = load ptr, ptr %5, align 8, !tbaa !3
  store ptr %20, ptr %2, align 8
  store i32 1, ptr %7, align 4
  br label %22

21:                                               ; preds = %1
  store ptr null, ptr %2, align 8
  store i32 1, ptr %7, align 4
  br label %22

22:                                               ; preds = %21, %13
  call void @llvm.lifetime.end.p0(i64 1024, ptr %6) #5
  call void @llvm.lifetime.end.p0(i64 8, ptr %5) #5
  call void @llvm.lifetime.end.p0(i64 8, ptr %4) #5
  %23 = load ptr, ptr %2, align 8
  ret ptr %23
}

declare ptr @fgets(ptr noundef, i32 noundef, ptr noundef) #2

; Function Attrs: nounwind willreturn memory(read)
declare i64 @strlen(ptr noundef) #3

; Function Attrs: nounwind
declare noalias ptr @strdup(ptr noundef) #4


!llvm.module.flags = !{!0, !1, !2}

!0 = !{i32 1, !"wchar_size", i32 4}
!1 = !{i32 8, !"PIC Level", i32 2}
!2 = !{i32 7, !"uwtable", i32 2}
!3 = !{!4, !4, i64 0}
!4 = !{!"p1 omnipotent char", !5, i64 0}
!5 = !{!"any pointer", !6, i64 0}
!6 = !{!"omnipotent char", !7, i64 0}
!7 = !{!"Simple C/C++ TBAA"}
!8 = !{!9, !9, i64 0}
!9 = !{!"long", !6, i64 0}
!10 = !{!6, !6, i64 0}
!11 = distinct !{!11, !12}
!12 = !{!"llvm.loop.mustprogress"}
!13 = !{!14, !14, i64 0}
!14 = !{!"p1 _ZTS8_IO_FILE", !5, i64 0}
