; ModuleID = 'bench/openmpi/original/pmix_string_copy.ll'
source_filename = "bench/openmpi/original/pmix_string_copy.ll"
target datalayout = "e-m:e-p270:32:32-p271:32:32-p272:64:64-i64:64-i128:128-f80:128-n8:16:32:64-S128"
target triple = "x86_64-pc-linux-gnu"

; Function Attrs: nofree norecurse nosync nounwind memory(argmem: readwrite) uwtable
define void @pmix_string_copy(ptr noundef nonnull writeonly captures(none) %0, ptr noundef nonnull readonly captures(none) %1, i64 noundef %2) local_unnamed_addr #0 {
  %.not = icmp eq i64 %2, 0
  br i1 %.not, label %._crit_edge, label %.lr.ph

.lr.ph:                                           ; preds = %3, %6
  %.015 = phi ptr [ %9, %6 ], [ %0, %3 ]
  %.01014 = phi i64 [ %7, %6 ], [ 0, %3 ]
  %.01113 = phi ptr [ %8, %6 ], [ %1, %3 ]
  %4 = load i8, ptr %.01113, align 1, !tbaa !3
  store i8 %4, ptr %.015, align 1, !tbaa !3
  %5 = icmp eq i8 %4, 0
  br i1 %5, label %.loopexit, label %6

6:                                                ; preds = %.lr.ph
  %7 = add nuw i64 %.01014, 1
  %8 = getelementptr inbounds nuw i8, ptr %.01113, i64 1
  %9 = getelementptr inbounds nuw i8, ptr %.015, i64 1
  %exitcond.not = icmp eq i64 %7, %2
  br i1 %exitcond.not, label %._crit_edge, label %.lr.ph, !llvm.loop !6

._crit_edge:                                      ; preds = %6, %3
  %10 = getelementptr i8, ptr %0, i64 %2
  %11 = getelementptr i8, ptr %10, i64 -1
  store i8 0, ptr %11, align 1, !tbaa !3
  br label %.loopexit

.loopexit:                                        ; preds = %.lr.ph, %._crit_edge
  ret void
}

; Function Attrs: mustprogress nocallback nofree nosync nounwind willreturn memory(argmem: readwrite)
declare void @llvm.lifetime.start.p0(i64 immarg, ptr captures(none)) #1

; Function Attrs: mustprogress nocallback nofree nosync nounwind willreturn memory(argmem: readwrite)
declare void @llvm.lifetime.end.p0(i64 immarg, ptr captures(none)) #1

; Function Attrs: nofree nounwind uwtable
define noalias ptr @pmix_getline(ptr noundef captures(none) %0) local_unnamed_addr #2 {
  %2 = alloca [1024 x i8], align 16
  call void @llvm.lifetime.start.p0(i64 1024, ptr nonnull %2) #6
  %3 = call ptr @fgets(ptr noundef nonnull %2, i32 noundef 1024, ptr noundef %0)
  %.not = icmp eq ptr %3, null
  br i1 %.not, label %9, label %4

4:                                                ; preds = %1
  %5 = call i64 @strlen(ptr noundef nonnull dereferenceable(1) %2) #7
  %6 = add i64 %5, -1
  %7 = getelementptr inbounds nuw [1024 x i8], ptr %2, i64 0, i64 %6
  store i8 0, ptr %7, align 1, !tbaa !3
  %8 = call noalias ptr @strdup(ptr noundef nonnull %2) #6
  br label %9

9:                                                ; preds = %1, %4
  %.0 = phi ptr [ %8, %4 ], [ null, %1 ]
  call void @llvm.lifetime.end.p0(i64 1024, ptr nonnull %2) #6
  ret ptr %.0
}

; Function Attrs: nofree nounwind
declare noundef ptr @fgets(ptr noundef, i32 noundef, ptr noundef captures(none)) local_unnamed_addr #3

; Function Attrs: mustprogress nofree nounwind willreturn memory(argmem: read)
declare i64 @strlen(ptr noundef captures(none)) local_unnamed_addr #4

; Function Attrs: mustprogress nofree nounwind willreturn memory(argmem: readwrite, inaccessiblemem: readwrite)
declare noalias ptr @strdup(ptr noundef readonly captures(none)) local_unnamed_addr #5


!llvm.module.flags = !{!0, !1, !2}

!0 = !{i32 1, !"wchar_size", i32 4}
!1 = !{i32 8, !"PIC Level", i32 2}
!2 = !{i32 7, !"uwtable", i32 2}
!3 = !{!4, !4, i64 0}
!4 = !{!"omnipotent char", !5, i64 0}
!5 = !{!"Simple C/C++ TBAA"}
!6 = distinct !{!6, !7}
!7 = !{!"llvm.loop.mustprogress"}
